; Function Attrs: nounwind uwtable
define dso_local ptr @resolve_gitdir_gently(ptr noundef %0, ptr noundef %1) local_unnamed_addr #0 {
  %3 = tail call i32 @is_git_directory(ptr noundef %0)
  %.not = icmp eq i32 %3, 0
  br i1 %.not, label %4, label %6

4:                                                ; preds = %2
  %5 = tail call ptr @read_gitfile_gently(ptr noundef %0, ptr noundef %1)
  br label %6

6:                                                ; preds = %2, %4
  %.0 = phi ptr [ %5, %4 ], [ %0, %2 ]
  ret ptr %.0
}